; Function Attrs: mustprogress uwtable
define dso_local void @_ZN19cmUVJobServerClient12ReleaseTokenEv(ptr nocapture noundef nonnull readonly align 8 dereferenceable(8) %0) local_unnamed_addr #3 align 2 {
  %2 = load ptr, ptr %0, align 8
  %3 = getelementptr inbounds i8, ptr %2, i64 96
  %4 = load i32, ptr %3, align 8
  %5 = add i32 %4, -1
  store i32 %5, ptr %3, align 8
  %6 = icmp eq i32 %5, 0
  br i1 %6, label %7, label %19

7:                                                ; preds = %1
  %8 = getelementptr inbounds i8, ptr %2, i64 100
  %9 = load i32, ptr %8, align 4
  %.not.i.i = icmp eq i32 %9, 0
  br i1 %.not.i.i, label %_ZN19cmUVJobServerClient4Impl12ReleaseTokenEv.exit, label %10

10:                                               ; preds = %7
  %11 = add i32 %9, -1
  store i32 %11, ptr %8, align 4
  %12 = icmp eq i32 %11, 0
  br i1 %12, label %13, label %_ZN19cmUVJobServerClient4Impl19DecrementNeedTokensEv.exit.i.i

13:                                               ; preds = %10
  %14 = load ptr, ptr %2, align 8
  %15 = getelementptr inbounds i8, ptr %14, i64 32
  %16 = load ptr, ptr %15, align 8
  tail call void %16(ptr noundef nonnull align 8 dereferenceable(104) %2)
  br label %_ZN19cmUVJobServerClient4Impl19DecrementNeedTokensEv.exit.i.i

_ZN19cmUVJobServerClient4Impl19DecrementNeedTokensEv.exit.i.i: ; preds = %13, %10
  %17 = getelementptr inbounds i8, ptr %2, i64 16
  %18 = tail call noundef i32 @_ZN2cm11uv_idle_ptr5startEPFvP9uv_idle_sE(ptr noundef nonnull align 8 dereferenceable(16) %17, ptr noundef nonnull @"_ZZN19cmUVJobServerClient4Impl20RequestImplicitTokenEvEN3$_08__invokeEP9uv_idle_s")
  br label %_ZN19cmUVJobServerClient4Impl12ReleaseTokenEv.exit

19:                                               ; preds = %1
  %20 = load ptr, ptr %2, align 8
  %21 = getelementptr inbounds i8, ptr %20, i64 16
  %22 = load ptr, ptr %21, align 8
  tail call void %22(ptr noundef nonnull align 8 dereferenceable(104) %2)
  br label %_ZN19cmUVJobServerClient4Impl12ReleaseTokenEv.exit

_ZN19cmUVJobServerClient4Impl12ReleaseTokenEv.exit: ; preds = %7, %_ZN19cmUVJobServerClient4Impl19DecrementNeedTokensEv.exit.i.i, %19
  ret void
}